target datalayout = "e-m:e-p270:32:32-p271:32:32-p272:64:64-i64:64-i128:128-f80:128-n8:16:32:64-S128"
target triple = "x86_64-pc-linux-gnu"

%struct.AVFormatContext = type { ptr, ptr, ptr, ptr, ptr, i32, i32, ptr, i32, ptr, i32, ptr, ptr, i64, i64, i64, i32, i32, i32, i64, i64, ptr, i32, i32, ptr, i32, i32, i32, i32, ptr, i64, i32, i32, %struct.AVIOInterruptCB, i32, i32, i32, i32, i64, i32, i32, i32, i32, i32, i32, i32, i32, i32, i32, i32, i32, i64, i32, i32, i32, i32, i32, ptr, ptr, ptr, ptr, i32, ptr, ptr, ptr, ptr, i32, ptr, ptr, i64, ptr, ptr, ptr, i64 }
%struct.AVIOInterruptCB = type { ptr, ptr }
%struct.AVStream = type { ptr, i32, i32, ptr, ptr, %struct.AVRational, i64, i64, i64, i32, i32, %struct.AVRational, ptr, %struct.AVRational, %struct.AVPacket, i32, %struct.AVRational, i32 }
%struct.AVPacket = type { ptr, i64, i64, ptr, i32, i32, i32, ptr, i32, i64, i64, ptr, ptr, %struct.AVRational }
%struct.AVRational = type { i32, i32 }
%struct.AVCodecParameters = type { i32, i32, i32, ptr, i32, ptr, i32, i32, i64, i32, i32, i32, i32, i32, i32, %struct.AVRational, %struct.AVRational, i32, i32, i32, i32, i32, i32, i32, %struct.AVChannelLayout, i32, i32, i32, i32, i32, i32 }
%struct.AVChannelLayout = type { i32, i32, %union.anon.0, ptr }
%union.anon.0 = type { i64 }
%struct.IEC61937Context = type { ptr, i32, i32, i32, ptr, i32, ptr, i32, i32, i32, [2 x ptr], i32, i32, i32, i32, i32, i16, i32, i32, i32, i32, i32, ptr }

@.str.12 = private unnamed_addr constant [9 x i8] c"Codec %d\00", align 1

; Function Attrs: nounwind uwtable
define internal i32 @spdif_write_header(ptr noundef %0) #0 {
  %2 = alloca i32, align 4
  %3 = alloca ptr, align 8
  %4 = alloca ptr, align 8
  %5 = alloca i32, align 4
  %6 = alloca i32, align 4
  store ptr %0, ptr %3, align 8, !tbaa !4
  call void @llvm.lifetime.start.p0(i64 8, ptr %4) #7
  %7 = load ptr, ptr %3, align 8, !tbaa !4
  %8 = getelementptr inbounds nuw %struct.AVFormatContext, ptr %7, i32 0, i32 3
  %9 = load ptr, ptr %8, align 8, !tbaa !9
  store ptr %9, ptr %4, align 8, !tbaa !26
  %10 = load ptr, ptr %3, align 8, !tbaa !4
  %11 = getelementptr inbounds nuw %struct.AVFormatContext, ptr %10, i32 0, i32 7
  %12 = load ptr, ptr %11, align 8, !tbaa !28
  %13 = getelementptr inbounds ptr, ptr %12, i64 0
  %14 = load ptr, ptr %13, align 8, !tbaa !29
  %15 = getelementptr inbounds nuw %struct.AVStream, ptr %14, i32 0, i32 3
  %16 = load ptr, ptr %15, align 8, !tbaa !31
  %17 = getelementptr inbounds nuw %struct.AVCodecParameters, ptr %16, i32 0, i32 1
  %18 = load i32, ptr %17, align 4, !tbaa !38
  switch i32 %18, label %64 [
    i32 86019, label %19
    i32 86056, label %22
    i32 86058, label %25
    i32 86016, label %25
    i32 86017, label %25
    i32 86020, label %28
    i32 86018, label %31
    i32 86060, label %34
    i32 86045, label %34
  ]

19:                                               ; preds = %1
  %20 = load ptr, ptr %4, align 8, !tbaa !26
  %21 = getelementptr inbounds nuw %struct.IEC61937Context, ptr %20, i32 0, i32 22
  store ptr @spdif_header_ac3, ptr %21, align 8, !tbaa !41
  br label %75

22:                                               ; preds = %1
  %23 = load ptr, ptr %4, align 8, !tbaa !26
  %24 = getelementptr inbounds nuw %struct.IEC61937Context, ptr %23, i32 0, i32 22
  store ptr @spdif_header_eac3, ptr %24, align 8, !tbaa !41
  br label %75

25:                                               ; preds = %1, %1, %1
  %26 = load ptr, ptr %4, align 8, !tbaa !26
  %27 = getelementptr inbounds nuw %struct.IEC61937Context, ptr %26, i32 0, i32 22
  store ptr @spdif_header_mpeg, ptr %27, align 8, !tbaa !41
  br label %75

28:                                               ; preds = %1
  %29 = load ptr, ptr %4, align 8, !tbaa !26
  %30 = getelementptr inbounds nuw %struct.IEC61937Context, ptr %29, i32 0, i32 22
  store ptr @spdif_header_dts, ptr %30, align 8, !tbaa !41
  br label %75

31:                                               ; preds = %1
  %32 = load ptr, ptr %4, align 8, !tbaa !26
  %33 = getelementptr inbounds nuw %struct.IEC61937Context, ptr %32, i32 0, i32 22
  store ptr @spdif_header_aac, ptr %33, align 8, !tbaa !41
  br label %75

34:                                               ; preds = %1, %1
  %35 = load ptr, ptr %4, align 8, !tbaa !26
  %36 = getelementptr inbounds nuw %struct.IEC61937Context, ptr %35, i32 0, i32 22
  store ptr @spdif_header_truehd, ptr %36, align 8, !tbaa !41
  call void @llvm.lifetime.start.p0(i64 4, ptr %5) #7
  store i32 0, ptr %5, align 4, !tbaa !44
  br label %37

37:                                               ; preds = %58, %34
  %38 = load i32, ptr %5, align 4, !tbaa !44
  %39 = sext i32 %38 to i64
  %40 = icmp ult i64 %39, 2
  br i1 %40, label %42, label %41

41:                                               ; preds = %37
  store i32 3, ptr %6, align 4
  br label %61

42:                                               ; preds = %37
  %43 = call noalias ptr @av_malloc(i64 noundef 61424)
  %44 = load ptr, ptr %4, align 8, !tbaa !26
  %45 = getelementptr inbounds nuw %struct.IEC61937Context, ptr %44, i32 0, i32 10
  %46 = load i32, ptr %5, align 4, !tbaa !44
  %47 = sext i32 %46 to i64
  %48 = getelementptr inbounds [2 x ptr], ptr %45, i64 0, i64 %47
  store ptr %43, ptr %48, align 8, !tbaa !45
  %49 = load ptr, ptr %4, align 8, !tbaa !26
  %50 = getelementptr inbounds nuw %struct.IEC61937Context, ptr %49, i32 0, i32 10
  %51 = load i32, ptr %5, align 4, !tbaa !44
  %52 = sext i32 %51 to i64
  %53 = getelementptr inbounds [2 x ptr], ptr %50, i64 0, i64 %52
  %54 = load ptr, ptr %53, align 8, !tbaa !45
  %55 = icmp ne ptr %54, null
  br i1 %55, label %57, label %56

56:                                               ; preds = %42
  store i32 -12, ptr %2, align 4
  store i32 1, ptr %6, align 4
  br label %61

57:                                               ; preds = %42
  br label %58

58:                                               ; preds = %57
  %59 = load i32, ptr %5, align 4, !tbaa !44
  %60 = add nsw i32 %59, 1
  store i32 %60, ptr %5, align 4, !tbaa !44
  br label %37, !llvm.loop !46

61:                                               ; preds = %56, %41
  call void @llvm.lifetime.end.p0(i64 4, ptr %5) #7
  %62 = load i32, ptr %6, align 4
  switch i32 %62, label %76 [
    i32 3, label %63
  ]

63:                                               ; preds = %61
  br label %75

64:                                               ; preds = %1
  %65 = load ptr, ptr %3, align 8, !tbaa !4
  %66 = load ptr, ptr %3, align 8, !tbaa !4
  %67 = getelementptr inbounds nuw %struct.AVFormatContext, ptr %66, i32 0, i32 7
  %68 = load ptr, ptr %67, align 8, !tbaa !28
  %69 = getelementptr inbounds ptr, ptr %68, i64 0
  %70 = load ptr, ptr %69, align 8, !tbaa !29
  %71 = getelementptr inbounds nuw %struct.AVStream, ptr %70, i32 0, i32 3
  %72 = load ptr, ptr %71, align 8, !tbaa !31
  %73 = getelementptr inbounds nuw %struct.AVCodecParameters, ptr %72, i32 0, i32 1
  %74 = load i32, ptr %73, align 4, !tbaa !38
  call void (ptr, ptr, ...) @avpriv_report_missing_feature(ptr noundef %65, ptr noundef @.str.12, i32 noundef %74)
  store i32 -1163346256, ptr %2, align 4
  store i32 1, ptr %6, align 4
  br label %76

75:                                               ; preds = %63, %31, %28, %25, %22, %19
  store i32 0, ptr %2, align 4
  store i32 1, ptr %6, align 4
  br label %76

76:                                               ; preds = %75, %64, %61
  call void @llvm.lifetime.end.p0(i64 8, ptr %4) #7
  %77 = load i32, ptr %2, align 4
  ret i32 %77
}