; Function Attrs: nounwind uwtable
define internal range(i32 -1163346256, 1) i32 @spdif_write_header(ptr noundef %0) #0 {
  %2 = getelementptr inbounds nuw i8, ptr %0, i64 24
  %3 = load ptr, ptr %2, align 8, !tbaa !4
  %4 = getelementptr inbounds nuw i8, ptr %0, i64 48
  %5 = load ptr, ptr %4, align 8, !tbaa !24
  %6 = load ptr, ptr %5, align 8, !tbaa !25
  %7 = getelementptr inbounds nuw i8, ptr %6, i64 16
  %8 = load ptr, ptr %7, align 8, !tbaa !27
  %9 = getelementptr inbounds nuw i8, ptr %8, i64 4
  %10 = load i32, ptr %9, align 4, !tbaa !34
  switch i32 %10, label %27 [
    i32 86019, label %11
    i32 86056, label %13
    i32 86058, label %15
    i32 86016, label %15
    i32 86017, label %15
    i32 86020, label %17
    i32 86018, label %19
    i32 86060, label %21
    i32 86045, label %21
  ]

11:                                               ; preds = %1
  %12 = getelementptr inbounds nuw i8, ptr %3, i64 128
  store ptr @spdif_header_ac3, ptr %12, align 8, !tbaa !37
  br label %.critedge

13:                                               ; preds = %1
  %14 = getelementptr inbounds nuw i8, ptr %3, i64 128
  store ptr @spdif_header_eac3, ptr %14, align 8, !tbaa !37
  br label %.critedge

15:                                               ; preds = %1, %1, %1
  %16 = getelementptr inbounds nuw i8, ptr %3, i64 128
  store ptr @spdif_header_mpeg, ptr %16, align 8, !tbaa !37
  br label %.critedge

17:                                               ; preds = %1
  %18 = getelementptr inbounds nuw i8, ptr %3, i64 128
  store ptr @spdif_header_dts, ptr %18, align 8, !tbaa !37
  br label %.critedge

19:                                               ; preds = %1
  %20 = getelementptr inbounds nuw i8, ptr %3, i64 128
  store ptr @spdif_header_aac, ptr %20, align 8, !tbaa !37
  br label %.critedge

21:                                               ; preds = %1, %1
  %22 = getelementptr inbounds nuw i8, ptr %3, i64 128
  store ptr @spdif_header_truehd, ptr %22, align 8, !tbaa !37
  %23 = getelementptr inbounds nuw i8, ptr %3, i64 64
  br label %24

24:                                               ; preds = %24, %21
  %.not21.not = phi i1 [ false, %21 ], [ true, %24 ]
  %indvars.iv = phi i64 [ 0, %21 ], [ 1, %24 ]
  %25 = tail call noalias ptr @av_malloc(i64 noundef 61424) #7
  %26 = getelementptr inbounds nuw [2 x ptr], ptr %23, i64 0, i64 %indvars.iv
  store ptr %25, ptr %26, align 8, !tbaa !40
  %.not = icmp eq ptr %25, null
  %brmerge = or i1 %.not, %.not21.not
  br i1 %brmerge, label %.critedge.loopexit, label %24

27:                                               ; preds = %1
  tail call void (ptr, ptr, ...) @avpriv_report_missing_feature(ptr noundef nonnull %0, ptr noundef nonnull @.str.12, i32 noundef %10) #7
  br label %.critedge

.critedge.loopexit:                               ; preds = %24
  %.mux = select i1 %.not, i32 -12, i32 0
  br label %.critedge

.critedge:                                        ; preds = %.critedge.loopexit, %11, %13, %15, %17, %19, %27
  %.1 = phi i32 [ -1163346256, %27 ], [ 0, %19 ], [ 0, %17 ], [ 0, %15 ], [ 0, %13 ], [ 0, %11 ], [ %.mux, %.critedge.loopexit ]
  ret i32 %.1
}